target datalayout = "e-m:e-p270:32:32-p271:32:32-p272:64:64-i64:64-i128:128-f80:128-n8:16:32:64-S128"
target triple = "x86_64-pc-linux-gnu"

%struct.tvbuff = type { ptr, ptr, i8, i32, ptr, ptr, i32, i32, i32, i32 }

@.str = private unnamed_addr constant [29 x i8] c"%s:%u: failed assertion \22%s\22\00", align 1
@.str.1 = private unnamed_addr constant [14 x i8] c"epan/tvbuff.c\00", align 1
@.str.5 = private unnamed_addr constant [24 x i8] c"tvb && tvb->initialized\00", align 1

; Function Attrs: inlinehint nounwind null_pointer_is_valid sspstrong uwtable
define internal i32 @compute_offset(ptr noundef %0, i32 noundef %1, ptr noundef %2) #7 {
  %4 = alloca i32, align 4
  %5 = alloca ptr, align 8
  %6 = alloca i32, align 4
  %7 = alloca ptr, align 8
  %8 = alloca i32, align 4
  %9 = alloca i32, align 4
  %10 = alloca i32, align 4
  %11 = alloca i32, align 4
  store ptr %0, ptr %5, align 8
  store i32 %1, ptr %6, align 4
  store ptr %2, ptr %7, align 8
  %12 = load i32, ptr %6, align 4
  %13 = icmp sge i32 %12, 0
  br i1 %13, label %14, label %54

14:                                               ; preds = %3
  call void @llvm.lifetime.start.p0(i64 4, ptr %8) #16
  %15 = load i32, ptr %6, align 4
  %16 = load ptr, ptr %5, align 8
  %17 = getelementptr inbounds nuw %struct.tvbuff, ptr %16, i32 0, i32 6
  %18 = load i32, ptr %17, align 8
  %19 = icmp ule i32 %15, %18
  br i1 %19, label %20, label %21

20:                                               ; preds = %14
  store i32 1, ptr %8, align 4
  br label %22

21:                                               ; preds = %14
  store i32 0, ptr %8, align 4
  br label %22

22:                                               ; preds = %21, %20
  %23 = load i32, ptr %8, align 4
  store i32 %23, ptr %9, align 4
  call void @llvm.lifetime.end.p0(i64 4, ptr %8) #16
  %24 = load i32, ptr %9, align 4
  %25 = sext i32 %24 to i64
  %26 = call i64 @llvm.expect.i64(i64 %25, i64 1)
  %27 = icmp ne i64 %26, 0
  br i1 %27, label %28, label %31

28:                                               ; preds = %22
  %29 = load i32, ptr %6, align 4
  %30 = load ptr, ptr %7, align 8
  store i32 %29, ptr %30, align 4
  br label %53

31:                                               ; preds = %22
  %32 = load i32, ptr %6, align 4
  %33 = load ptr, ptr %5, align 8
  %34 = getelementptr inbounds nuw %struct.tvbuff, ptr %33, i32 0, i32 8
  %35 = load i32, ptr %34, align 8
  %36 = icmp ule i32 %32, %35
  br i1 %36, label %37, label %38

37:                                               ; preds = %31
  store i32 1, ptr %4, align 4
  br label %102

38:                                               ; preds = %31
  %39 = load ptr, ptr %5, align 8
  %40 = getelementptr inbounds nuw %struct.tvbuff, ptr %39, i32 0, i32 3
  %41 = load i32, ptr %40, align 4
  %42 = and i32 %41, 1
  %43 = icmp ne i32 %42, 0
  br i1 %43, label %44, label %45

44:                                               ; preds = %38
  store i32 4, ptr %4, align 4
  br label %102

45:                                               ; preds = %38
  %46 = load i32, ptr %6, align 4
  %47 = load ptr, ptr %5, align 8
  %48 = getelementptr inbounds nuw %struct.tvbuff, ptr %47, i32 0, i32 7
  %49 = load i32, ptr %48, align 4
  %50 = icmp ule i32 %46, %49
  br i1 %50, label %51, label %52

51:                                               ; preds = %45
  store i32 2, ptr %4, align 4
  br label %102

52:                                               ; preds = %45
  store i32 3, ptr %4, align 4
  br label %102

53:                                               ; preds = %28
  br label %101

54:                                               ; preds = %3
  call void @llvm.lifetime.start.p0(i64 4, ptr %10) #16
  %55 = load i32, ptr %6, align 4
  %56 = sub i32 0, %55
  %57 = load ptr, ptr %5, align 8
  %58 = getelementptr inbounds nuw %struct.tvbuff, ptr %57, i32 0, i32 6
  %59 = load i32, ptr %58, align 8
  %60 = icmp ule i32 %56, %59
  br i1 %60, label %61, label %62

61:                                               ; preds = %54
  store i32 1, ptr %10, align 4
  br label %63

62:                                               ; preds = %54
  store i32 0, ptr %10, align 4
  br label %63

63:                                               ; preds = %62, %61
  %64 = load i32, ptr %10, align 4
  store i32 %64, ptr %11, align 4
  call void @llvm.lifetime.end.p0(i64 4, ptr %10) #16
  %65 = load i32, ptr %11, align 4
  %66 = sext i32 %65 to i64
  %67 = call i64 @llvm.expect.i64(i64 %66, i64 1)
  %68 = icmp ne i64 %67, 0
  br i1 %68, label %69, label %76

69:                                               ; preds = %63
  %70 = load ptr, ptr %5, align 8
  %71 = getelementptr inbounds nuw %struct.tvbuff, ptr %70, i32 0, i32 6
  %72 = load i32, ptr %71, align 8
  %73 = load i32, ptr %6, align 4
  %74 = add i32 %72, %73
  %75 = load ptr, ptr %7, align 8
  store i32 %74, ptr %75, align 4
  br label %100

76:                                               ; preds = %63
  %77 = load i32, ptr %6, align 4
  %78 = sub i32 0, %77
  %79 = load ptr, ptr %5, align 8
  %80 = getelementptr inbounds nuw %struct.tvbuff, ptr %79, i32 0, i32 8
  %81 = load i32, ptr %80, align 8
  %82 = icmp ule i32 %78, %81
  br i1 %82, label %83, label %84

83:                                               ; preds = %76
  store i32 1, ptr %4, align 4
  br label %102

84:                                               ; preds = %76
  %85 = load ptr, ptr %5, align 8
  %86 = getelementptr inbounds nuw %struct.tvbuff, ptr %85, i32 0, i32 3
  %87 = load i32, ptr %86, align 4
  %88 = and i32 %87, 1
  %89 = icmp ne i32 %88, 0
  br i1 %89, label %90, label %91

90:                                               ; preds = %84
  store i32 4, ptr %4, align 4
  br label %102

91:                                               ; preds = %84
  %92 = load i32, ptr %6, align 4
  %93 = sub i32 0, %92
  %94 = load ptr, ptr %5, align 8
  %95 = getelementptr inbounds nuw %struct.tvbuff, ptr %94, i32 0, i32 7
  %96 = load i32, ptr %95, align 4
  %97 = icmp ule i32 %93, %96
  br i1 %97, label %98, label %99

98:                                               ; preds = %91
  store i32 2, ptr %4, align 4
  br label %102

99:                                               ; preds = %91
  store i32 3, ptr %4, align 4
  br label %102

100:                                              ; preds = %69
  br label %101

101:                                              ; preds = %100, %53
  store i32 0, ptr %4, align 4
  br label %102

102:                                              ; preds = %101, %99, %98, %90, %83, %52, %51, %44, %37
  %103 = load i32, ptr %4, align 4
  ret i32 %103
}

; Function Attrs: inlinehint null_pointer_is_valid sspstrong uwtable
define internal i32 @compute_offset_and_remaining(ptr noundef %0, i32 noundef %1, ptr noundef %2, ptr noundef %3) #5 {
  %5 = alloca ptr, align 8
  %6 = alloca i32, align 4
  %7 = alloca ptr, align 8
  %8 = alloca ptr, align 8
  %9 = alloca i32, align 4
  store ptr %0, ptr %5, align 8
  store i32 %1, ptr %6, align 4
  store ptr %2, ptr %7, align 8
  store ptr %3, ptr %8, align 8
  call void @llvm.lifetime.start.p0(i64 4, ptr %9) #16
  %10 = load ptr, ptr %5, align 8
  %11 = load i32, ptr %6, align 4
  %12 = load ptr, ptr %7, align 8
  %13 = call i32 @compute_offset(ptr noundef %10, i32 noundef %11, ptr noundef %12)
  store i32 %13, ptr %9, align 4
  %14 = load i32, ptr %9, align 4
  %15 = icmp ne i32 %14, 0
  br i1 %15, label %24, label %16

16:                                               ; preds = %4
  %17 = load ptr, ptr %5, align 8
  %18 = getelementptr inbounds nuw %struct.tvbuff, ptr %17, i32 0, i32 6
  %19 = load i32, ptr %18, align 8
  %20 = load ptr, ptr %7, align 8
  %21 = load i32, ptr %20, align 4
  %22 = sub i32 %19, %21
  %23 = load ptr, ptr %8, align 8
  store i32 %22, ptr %23, align 4
  br label %24

24:                                               ; preds = %16, %4
  %25 = load i32, ptr %9, align 4
  call void @llvm.lifetime.end.p0(i64 4, ptr %9) #16
  ret i32 %25
}

; Function Attrs: null_pointer_is_valid sspstrong uwtable
define i32 @tvb_ensure_captured_length_remaining(ptr noundef %0, i32 noundef %1) #0 {
  %3 = alloca ptr, align 8
  %4 = alloca i32, align 4
  %5 = alloca i32, align 4
  %6 = alloca i32, align 4
  %7 = alloca i32, align 4
  store ptr %0, ptr %3, align 8
  store i32 %1, ptr %4, align 4
  call void @llvm.lifetime.start.p0(i64 4, ptr %5) #16
  store i32 0, ptr %5, align 4
  call void @llvm.lifetime.start.p0(i64 4, ptr %6) #16
  store i32 0, ptr %6, align 4
  call void @llvm.lifetime.start.p0(i64 4, ptr %7) #16
  %8 = load ptr, ptr %3, align 8
  %9 = icmp ne ptr %8, null
  br i1 %9, label %10, label %16

10:                                               ; preds = %2
  %11 = load ptr, ptr %3, align 8
  %12 = getelementptr inbounds nuw %struct.tvbuff, ptr %11, i32 0, i32 2
  %13 = load i8, ptr %12, align 8, !range !9, !noundef !10
  %14 = trunc i8 %13 to i1
  br i1 %14, label %15, label %16

15:                                               ; preds = %10
  br label %18

16:                                               ; preds = %10, %2
  call void (ptr, ...) @proto_report_dissector_bug(ptr noundef @.str, ptr noundef @.str.1, i32 noundef 578, ptr noundef @.str.5) #18
  unreachable

17:                                               ; No predecessors!
  br label %18

18:                                               ; preds = %17, %15
  %19 = load ptr, ptr %3, align 8
  %20 = load i32, ptr %4, align 4
  %21 = call i32 @compute_offset_and_remaining(ptr noundef %19, i32 noundef %20, ptr noundef %5, ptr noundef %6)
  store i32 %21, ptr %7, align 4
  %22 = load i32, ptr %7, align 4
  %23 = icmp ne i32 %22, 0
  br i1 %23, label %24, label %27

24:                                               ; preds = %18
  %25 = load i32, ptr %7, align 4
  %26 = sext i32 %25 to i64
  call void @except_throw(i64 noundef 1, i64 noundef %26, ptr noundef null) #18
  unreachable

27:                                               ; preds = %18
  %28 = load i32, ptr %6, align 4
  %29 = icmp eq i32 %28, 0
  br i1 %29, label %30, label %52

30:                                               ; preds = %27
  %31 = load i32, ptr %5, align 4
  %32 = load ptr, ptr %3, align 8
  %33 = getelementptr inbounds nuw %struct.tvbuff, ptr %32, i32 0, i32 8
  %34 = load i32, ptr %33, align 8
  %35 = icmp ult i32 %31, %34
  br i1 %35, label %36, label %37

36:                                               ; preds = %30
  call void @except_throw(i64 noundef 1, i64 noundef 1, ptr noundef null) #18
  unreachable

37:                                               ; preds = %30
  %38 = load ptr, ptr %3, align 8
  %39 = getelementptr inbounds nuw %struct.tvbuff, ptr %38, i32 0, i32 3
  %40 = load i32, ptr %39, align 4
  %41 = and i32 %40, 1
  %42 = icmp ne i32 %41, 0
  br i1 %42, label %43, label %44

43:                                               ; preds = %37
  call void @except_throw(i64 noundef 1, i64 noundef 4, ptr noundef null) #18
  unreachable

44:                                               ; preds = %37
  %45 = load i32, ptr %5, align 4
  %46 = load ptr, ptr %3, align 8
  %47 = getelementptr inbounds nuw %struct.tvbuff, ptr %46, i32 0, i32 7
  %48 = load i32, ptr %47, align 4
  %49 = icmp ult i32 %45, %48
  br i1 %49, label %50, label %51

50:                                               ; preds = %44
  call void @except_throw(i64 noundef 1, i64 noundef 2, ptr noundef null) #18
  unreachable

51:                                               ; preds = %44
  call void @except_throw(i64 noundef 1, i64 noundef 3, ptr noundef null) #18
  unreachable

52:                                               ; preds = %27
  %53 = load i32, ptr %6, align 4
  call void @llvm.lifetime.end.p0(i64 4, ptr %7) #16
  call void @llvm.lifetime.end.p0(i64 4, ptr %6) #16
  call void @llvm.lifetime.end.p0(i64 4, ptr %5) #16
  ret i32 %53
}