; Function Attrs: null_pointer_is_valid sspstrong uwtable
define range(i32 1, 0) i32 @tvb_ensure_captured_length_remaining(ptr noundef readonly captures(address_is_null) %0, i32 noundef %1) local_unnamed_addr #0 {
  %.not = icmp eq ptr %0, null
  br i1 %.not, label %7, label %3

3:                                                ; preds = %2
  %4 = getelementptr inbounds nuw i8, ptr %0, i64 16
  %5 = load i8, ptr %4, align 8, !range !9, !noundef !10
  %6 = trunc nuw i8 %5 to i1
  br i1 %6, label %8, label %7

7:                                                ; preds = %3, %2
  tail call void (ptr, ...) @proto_report_dissector_bug(ptr noundef nonnull @.str, ptr noundef nonnull @.str.1, i32 noundef 578, ptr noundef nonnull @.str.5) #18
  unreachable

8:                                                ; preds = %3
  %9 = icmp sgt i32 %1, -1
  br i1 %9, label %10, label %23

10:                                               ; preds = %8
  %11 = getelementptr inbounds nuw i8, ptr %0, i64 40
  %12 = load i32, ptr %11, align 8
  %.not32.i.i = icmp ugt i32 %1, %12
  br i1 %.not32.i.i, label %13, label %40, !prof !11

13:                                               ; preds = %10
  %14 = getelementptr inbounds nuw i8, ptr %0, i64 48
  %15 = load i32, ptr %14, align 8
  %.not34.i.i = icmp ugt i32 %1, %15
  br i1 %.not34.i.i, label %16, label %39

16:                                               ; preds = %13
  %17 = getelementptr inbounds nuw i8, ptr %0, i64 20
  %18 = load i32, ptr %17, align 4
  %19 = and i32 %18, 1
  %.not35.i.i = icmp eq i32 %19, 0
  br i1 %.not35.i.i, label %20, label %39

20:                                               ; preds = %16
  %21 = getelementptr inbounds nuw i8, ptr %0, i64 44
  %22 = load i32, ptr %21, align 4
  %.not36.i.i = icmp ugt i32 %1, %22
  br label %.sink.split

23:                                               ; preds = %8
  %24 = sub i32 0, %1
  %25 = getelementptr inbounds nuw i8, ptr %0, i64 40
  %26 = load i32, ptr %25, align 8
  %.not.i.i = icmp ult i32 %26, %24
  br i1 %.not.i.i, label %29, label %27, !prof !11

27:                                               ; preds = %23
  %28 = add i32 %26, %1
  br label %40

29:                                               ; preds = %23
  %30 = getelementptr inbounds nuw i8, ptr %0, i64 48
  %31 = load i32, ptr %30, align 8
  %.not29.i.i = icmp ult i32 %31, %24
  br i1 %.not29.i.i, label %32, label %39

32:                                               ; preds = %29
  %33 = getelementptr inbounds nuw i8, ptr %0, i64 20
  %34 = load i32, ptr %33, align 4
  %35 = and i32 %34, 1
  %.not30.i.i = icmp eq i32 %35, 0
  br i1 %.not30.i.i, label %36, label %39

36:                                               ; preds = %32
  %37 = getelementptr inbounds nuw i8, ptr %0, i64 44
  %38 = load i32, ptr %37, align 4
  %.not31.i.i = icmp ult i32 %38, %24
  br label %.sink.split

.sink.split:                                      ; preds = %20, %36
  %.not31.i.i.sink = phi i1 [ %.not31.i.i, %36 ], [ %.not36.i.i, %20 ]
  %.37.i.i = select i1 %.not31.i.i.sink, i64 3, i64 2
  br label %39

39:                                               ; preds = %.sink.split, %32, %29, %16, %13
  %.0.i9.i.ph = phi i64 [ 1, %13 ], [ 4, %16 ], [ 1, %29 ], [ 4, %32 ], [ %.37.i.i, %.sink.split ]
  tail call void @except_throw(i64 noundef 1, i64 noundef %.0.i9.i.ph, ptr noundef null) #18
  unreachable

40:                                               ; preds = %27, %10
  %41 = phi i32 [ %26, %27 ], [ %12, %10 ]
  %storemerge.i.i = phi i32 [ %28, %27 ], [ %1, %10 ]
  %42 = icmp eq i32 %41, %storemerge.i.i
  br i1 %42, label %43, label %59

43:                                               ; preds = %40
  %44 = getelementptr inbounds nuw i8, ptr %0, i64 48
  %45 = load i32, ptr %44, align 8
  %46 = icmp ult i32 %41, %45
  br i1 %46, label %47, label %48

47:                                               ; preds = %43
  tail call void @except_throw(i64 noundef 1, i64 noundef 1, ptr noundef null) #18
  unreachable

48:                                               ; preds = %43
  %49 = getelementptr inbounds nuw i8, ptr %0, i64 20
  %50 = load i32, ptr %49, align 4
  %51 = and i32 %50, 1
  %.not12 = icmp eq i32 %51, 0
  br i1 %.not12, label %53, label %52

52:                                               ; preds = %48
  tail call void @except_throw(i64 noundef 1, i64 noundef 4, ptr noundef null) #18
  unreachable

53:                                               ; preds = %48
  %54 = getelementptr inbounds nuw i8, ptr %0, i64 44
  %55 = load i32, ptr %54, align 4
  %56 = icmp ult i32 %41, %55
  br i1 %56, label %57, label %58

57:                                               ; preds = %53
  tail call void @except_throw(i64 noundef 1, i64 noundef 2, ptr noundef null) #18
  unreachable

58:                                               ; preds = %53
  tail call void @except_throw(i64 noundef 1, i64 noundef 3, ptr noundef null) #18
  unreachable

59:                                               ; preds = %40
  %60 = sub i32 %41, %storemerge.i.i
  ret i32 %60
}